target datalayout = "e-m:e-p270:32:32-p271:32:32-p272:64:64-i64:64-i128:128-f80:128-n8:16:32:64-S128"
target triple = "x86_64-pc-linux-gnu"

%class.Phase = type { i32, ptr }
%class.LRG = type { double, double, double, ptr, i32, i32, i32, i32, i32, i32, %class.RegMask, i32, i16, i32, i16, i16 }
%class.RegMask = type { %union.anon, i32, i32 }
%union.anon = type { [11 x i64] }
%class.VectorSet = type { i32, ptr, i32, ptr }
%class.PhaseRegAlloc = type { ptr, %class.Phase, ptr, i32, %class.VectorSet, ptr, i32, i32, ptr }
%class.PhaseCFG = type { %class.Phase, ptr, ptr, %class.Block_List, i32, ptr, ptr, i8, ptr, %class.Block_Array, ptr, double, ptr, ptr }
%class.Block_List = type <{ %class.Block_Array, i32, [4 x i8] }>
%class.Block_Array = type { i32, ptr, ptr }
%class.Block = type { %class.CFGElement, %class.Node_List, %class.Block_Array, i32, i32, i32, ptr, ptr, i32, i32, i32, i32, i32, i32, i32, i32, i8, i32 }
%class.CFGElement = type { ptr, double }
%class.Node_List = type <{ %class.Node_Array, i32, [4 x i8] }>
%class.Node_Array = type { ptr, i32, ptr }
%class.Node = type <{ ptr, ptr, ptr, i32, i32, i32, i32, i32, i32, i32, [4 x i8] }>

; Function Attrs: mustprogress nounwind uwtable
define linkonce_odr hidden noundef ptr @_ZNK10Node_ArrayixEj(ptr noundef nonnull align 8 dereferenceable(24) %0, i32 noundef %1) #1 comdat align 2 {
  %3 = alloca ptr, align 8
  %4 = alloca i32, align 4
  store ptr %0, ptr %3, align 8
  store i32 %1, ptr %4, align 4
  %5 = load ptr, ptr %3, align 8
  %6 = load i32, ptr %4, align 4
  %7 = getelementptr inbounds %class.Node_Array, ptr %5, i32 0, i32 1
  %8 = load i32, ptr %7, align 8
  %9 = icmp ult i32 %6, %8
  br i1 %9, label %10, label %17

10:                                               ; preds = %2
  %11 = getelementptr inbounds %class.Node_Array, ptr %5, i32 0, i32 2
  %12 = load ptr, ptr %11, align 8
  %13 = load i32, ptr %4, align 4
  %14 = zext i32 %13 to i64
  %15 = getelementptr inbounds ptr, ptr %12, i64 %14
  %16 = load ptr, ptr %15, align 8
  br label %18

17:                                               ; preds = %2
  br label %18

18:                                               ; preds = %17, %10
  %19 = phi ptr [ %16, %10 ], [ null, %17 ]
  ret ptr %19
}

; Function Attrs: mustprogress nounwind uwtable
define linkonce_odr hidden noundef ptr @_ZNK11Block_ArrayixEj(ptr noundef nonnull align 8 dereferenceable(24) %0, i32 noundef %1) #1 comdat align 2 {
  %3 = alloca ptr, align 8
  %4 = alloca i32, align 4
  store ptr %0, ptr %3, align 8
  store i32 %1, ptr %4, align 4
  %5 = load ptr, ptr %3, align 8
  %6 = getelementptr inbounds %class.Block_Array, ptr %5, i32 0, i32 2
  %7 = load ptr, ptr %6, align 8
  %8 = load i32, ptr %4, align 4
  %9 = zext i32 %8 to i64
  %10 = getelementptr inbounds ptr, ptr %7, i64 %9
  %11 = load ptr, ptr %10, align 8
  ret ptr %11
}

; Function Attrs: mustprogress nounwind uwtable
define linkonce_odr hidden noundef ptr @_ZNK5Block8get_nodeEj(ptr noundef nonnull align 8 dereferenceable(144) %0, i32 noundef %1) #1 comdat align 2 {
  %3 = alloca ptr, align 8
  %4 = alloca i32, align 4
  store ptr %0, ptr %3, align 8
  store i32 %1, ptr %4, align 4
  %5 = load ptr, ptr %3, align 8
  %6 = getelementptr inbounds %class.Block, ptr %5, i32 0, i32 1
  %7 = load i32, ptr %4, align 4
  %8 = call noundef ptr @_ZNK10Node_ArrayixEj(ptr noundef nonnull align 8 dereferenceable(24) %6, i32 noundef %7)
  ret ptr %8
}

; Function Attrs: mustprogress nounwind uwtable
define linkonce_odr hidden noundef ptr @_ZNK8PhaseCFG18get_block_for_nodeEPK4Node(ptr noundef nonnull align 8 dereferenceable(160) %0, ptr noundef %1) #1 comdat align 2 {
  %3 = alloca ptr, align 8
  %4 = alloca ptr, align 8
  store ptr %0, ptr %3, align 8
  store ptr %1, ptr %4, align 8
  %5 = load ptr, ptr %3, align 8
  %6 = getelementptr inbounds %class.PhaseCFG, ptr %5, i32 0, i32 9
  %7 = load ptr, ptr %4, align 8
  %8 = getelementptr inbounds %class.Node, ptr %7, i32 0, i32 7
  %9 = load i32, ptr %8, align 8
  %10 = call noundef ptr @_ZNK11Block_ArrayixEj(ptr noundef nonnull align 8 dereferenceable(24) %6, i32 noundef %9)
  ret ptr %10
}

; Function Attrs: mustprogress nounwind uwtable
define linkonce_odr hidden noundef ptr @_ZNK4Node10unique_outEv(ptr noundef nonnull align 8 dereferenceable(52) %0) #1 comdat align 2 {
  %2 = alloca ptr, align 8
  store ptr %0, ptr %2, align 8
  %3 = load ptr, ptr %2, align 8
  %4 = getelementptr inbounds %class.Node, ptr %3, i32 0, i32 2
  %5 = load ptr, ptr %4, align 8
  %6 = getelementptr inbounds ptr, ptr %5, i64 0
  %7 = load ptr, ptr %6, align 8
  ret ptr %7
}

; Function Attrs: mustprogress nounwind uwtable
define linkonce_odr hidden noundef i32 @_ZNK4Node6outcntEv(ptr noundef nonnull align 8 dereferenceable(52) %0) #1 comdat align 2 {
  %2 = alloca ptr, align 8
  store ptr %0, ptr %2, align 8
  %3 = load ptr, ptr %2, align 8
  %4 = getelementptr inbounds %class.Node, ptr %3, i32 0, i32 5
  %5 = load i32, ptr %4, align 8
  ret i32 %5
}

; Function Attrs: mustprogress nounwind uwtable
define linkonce_odr hidden noundef zeroext i1 @_ZNK3LRG12is_singledefEv(ptr noundef nonnull align 8 dereferenceable(168) %0) #1 comdat align 2 {
  %2 = alloca ptr, align 8
  store ptr %0, ptr %2, align 8
  %3 = load ptr, ptr %2, align 8
  %4 = getelementptr inbounds %class.LRG, ptr %3, i32 0, i32 3
  %5 = load ptr, ptr %4, align 8
  %6 = icmp ne ptr %5, inttoptr (i64 -1 to ptr)
  ret i1 %6
}

; Function Attrs: mustprogress nounwind uwtable
define linkonce_odr hidden noundef zeroext i1 @_ZNK4Node12is_SpillCopyEv(ptr noundef nonnull align 8 dereferenceable(52) %0) #1 comdat align 2 {
  %2 = alloca ptr, align 8
  store ptr %0, ptr %2, align 8
  %3 = load ptr, ptr %2, align 8
  %4 = getelementptr inbounds %class.Node, ptr %3, i32 0, i32 8
  %5 = load i32, ptr %4, align 4
  %6 = and i32 %5, 31
  %7 = icmp eq i32 %6, 18
  ret i1 %7
}

; Function Attrs: mustprogress nounwind uwtable
define hidden void @_ZN12PhaseChaitin37assign_high_score_to_immediate_copiesEP5BlockP4NodeR3LRGjj(ptr noundef nonnull align 8 dereferenceable(364) %0, ptr noundef %1, ptr noundef %2, ptr noundef nonnull align 8 dereferenceable(168) %3, i32 noundef %4, i32 noundef %5) #1 align 2 {
  %7 = alloca ptr, align 8
  %8 = alloca ptr, align 8
  %9 = alloca ptr, align 8
  %10 = alloca ptr, align 8
  %11 = alloca i32, align 4
  %12 = alloca i32, align 4
  %13 = alloca ptr, align 8
  %14 = alloca ptr, align 8
  %15 = alloca i32, align 4
  store ptr %0, ptr %7, align 8
  store ptr %1, ptr %8, align 8
  store ptr %2, ptr %9, align 8
  store ptr %3, ptr %10, align 8
  store i32 %4, ptr %11, align 4
  store i32 %5, ptr %12, align 4
  %16 = load ptr, ptr %7, align 8
  %17 = load ptr, ptr %9, align 8
  %18 = call noundef zeroext i1 @_ZNK4Node12is_SpillCopyEv(ptr noundef nonnull align 8 dereferenceable(52) %17)
  br i1 %18, label %19, label %63

19:                                               ; preds = %6
  %20 = load ptr, ptr %10, align 8
  %21 = call noundef zeroext i1 @_ZNK3LRG12is_singledefEv(ptr noundef nonnull align 8 dereferenceable(168) %20)
  br i1 %21, label %22, label %63

22:                                               ; preds = %19
  %23 = load ptr, ptr %9, align 8
  %24 = call noundef i32 @_ZNK4Node6outcntEv(ptr noundef nonnull align 8 dereferenceable(52) %23)
  %25 = icmp eq i32 %24, 1
  br i1 %25, label %26, label %63

26:                                               ; preds = %22
  %27 = getelementptr inbounds %class.PhaseRegAlloc, ptr %16, i32 0, i32 5
  %28 = load ptr, ptr %27, align 8
  %29 = load ptr, ptr %9, align 8
  %30 = call noundef ptr @_ZNK4Node10unique_outEv(ptr noundef nonnull align 8 dereferenceable(52) %29)
  %31 = call noundef ptr @_ZNK8PhaseCFG18get_block_for_nodeEPK4Node(ptr noundef nonnull align 8 dereferenceable(160) %28, ptr noundef %30)
  %32 = load ptr, ptr %8, align 8
  %33 = icmp eq ptr %31, %32
  br i1 %33, label %34, label %63

34:                                               ; preds = %26
  %35 = load ptr, ptr %9, align 8
  %36 = call noundef ptr @_ZNK4Node10unique_outEv(ptr noundef nonnull align 8 dereferenceable(52) %35)
  store ptr %36, ptr %13, align 8
  %37 = load ptr, ptr %9, align 8
  store ptr %37, ptr %14, align 8
  %38 = load i32, ptr %11, align 4
  store i32 %38, ptr %15, align 4
  br label %39

39:                                               ; preds = %52, %34
  %40 = load i32, ptr %15, align 4
  %41 = load i32, ptr %12, align 4
  %42 = icmp ule i32 %40, %41
  br i1 %42, label %43, label %46

43:                                               ; preds = %39
  %44 = load ptr, ptr %14, align 8
  %45 = call noundef zeroext i1 @_ZNK4Node12is_SpillCopyEv(ptr noundef nonnull align 8 dereferenceable(52) %44)
  br label %46

46:                                               ; preds = %43, %39
  %47 = phi i1 [ false, %39 ], [ %45, %43 ]
  br i1 %47, label %48, label %55

48:                                               ; preds = %46
  %49 = load ptr, ptr %8, align 8
  %50 = load i32, ptr %15, align 4
  %51 = call noundef ptr @_ZNK5Block8get_nodeEj(ptr noundef nonnull align 8 dereferenceable(144) %49, i32 noundef %50)
  store ptr %51, ptr %14, align 8
  br label %52

52:                                               ; preds = %48
  %53 = load i32, ptr %15, align 4
  %54 = add i32 %53, 1
  store i32 %54, ptr %15, align 4
  br label %39, !llvm.loop !27

55:                                               ; preds = %46
  %56 = load ptr, ptr %14, align 8
  %57 = load ptr, ptr %13, align 8
  %58 = icmp eq ptr %56, %57
  br i1 %58, label %59, label %62

59:                                               ; preds = %55
  %60 = load ptr, ptr %10, align 8
  %61 = getelementptr inbounds %class.LRG, ptr %60, i32 0, i32 1
  store double 0.000000e+00, ptr %61, align 8
  br label %62

62:                                               ; preds = %59, %55
  br label %63

63:                                               ; preds = %62, %26, %22, %19, %6
  ret void
}