; Function Attrs: mustprogress nofree norecurse nosync nounwind memory(read, argmem: readwrite, inaccessiblemem: none) uwtable
define hidden void @_ZN12PhaseChaitin37assign_high_score_to_immediate_copiesEP5BlockP4NodeR3LRGjj(ptr nocapture noundef nonnull readonly align 8 dereferenceable(364) %0, ptr noundef readonly %1, ptr noundef readonly %2, ptr nocapture noundef nonnull align 8 dereferenceable(168) %3, i32 noundef %4, i32 noundef %5) local_unnamed_addr #7 align 2 {
  %7 = getelementptr inbounds i8, ptr %2, i64 44
  %8 = load i32, ptr %7, align 4
  %9 = and i32 %8, 31
  %10 = icmp eq i32 %9, 18
  %11 = getelementptr inbounds i8, ptr %3, i64 24
  %12 = load ptr, ptr %11, align 8
  %13 = icmp ne ptr %12, inttoptr (i64 -1 to ptr)
  %or.cond = select i1 %10, i1 %13, i1 false
  br i1 %or.cond, label %14, label %52

14:                                               ; preds = %6
  %15 = getelementptr inbounds i8, ptr %2, i64 32
  %16 = load i32, ptr %15, align 8
  %17 = icmp eq i32 %16, 1
  br i1 %17, label %18, label %52

18:                                               ; preds = %14
  %19 = getelementptr inbounds i8, ptr %0, i64 72
  %20 = load ptr, ptr %19, align 8
  %21 = getelementptr inbounds i8, ptr %2, i64 16
  %22 = load ptr, ptr %21, align 8
  %23 = load ptr, ptr %22, align 8
  %24 = getelementptr inbounds i8, ptr %23, i64 40
  %25 = load i32, ptr %24, align 8
  %26 = getelementptr inbounds i8, ptr %20, i64 120
  %27 = load ptr, ptr %26, align 8
  %28 = zext i32 %25 to i64
  %29 = getelementptr inbounds ptr, ptr %27, i64 %28
  %30 = load ptr, ptr %29, align 8
  %31 = icmp eq ptr %30, %1
  br i1 %31, label %.preheader, label %52

.preheader:                                       ; preds = %18
  %.not21 = icmp ugt i32 %4, %5
  br i1 %.not21, label %.critedge, label %.lr.ph

.lr.ph:                                           ; preds = %.preheader
  %32 = getelementptr inbounds i8, ptr %1, i64 24
  %33 = getelementptr inbounds i8, ptr %1, i64 32
  br label %34

34:                                               ; preds = %.lr.ph, %_ZNK5Block8get_nodeEj.exit
  %.023 = phi i32 [ %4, %.lr.ph ], [ %48, %_ZNK5Block8get_nodeEj.exit ]
  %.01722 = phi ptr [ %2, %.lr.ph ], [ %47, %_ZNK5Block8get_nodeEj.exit ]
  %35 = getelementptr inbounds i8, ptr %.01722, i64 44
  %36 = load i32, ptr %35, align 4
  %37 = and i32 %36, 31
  %38 = icmp eq i32 %37, 18
  br i1 %38, label %39, label %.critedge

39:                                               ; preds = %34
  %40 = load i32, ptr %32, align 8
  %41 = icmp ugt i32 %40, %.023
  br i1 %41, label %42, label %_ZNK5Block8get_nodeEj.exit

42:                                               ; preds = %39
  %43 = load ptr, ptr %33, align 8
  %44 = zext i32 %.023 to i64
  %45 = getelementptr inbounds ptr, ptr %43, i64 %44
  %46 = load ptr, ptr %45, align 8
  br label %_ZNK5Block8get_nodeEj.exit

_ZNK5Block8get_nodeEj.exit:                       ; preds = %39, %42
  %47 = phi ptr [ %46, %42 ], [ null, %39 ]
  %48 = add i32 %.023, 1
  %.not = icmp ugt i32 %48, %5
  br i1 %.not, label %.critedge, label %34, !llvm.loop !28

.critedge:                                        ; preds = %34, %_ZNK5Block8get_nodeEj.exit, %.preheader
  %.017.lcssa = phi ptr [ %2, %.preheader ], [ %47, %_ZNK5Block8get_nodeEj.exit ], [ %.01722, %34 ]
  %49 = icmp eq ptr %.017.lcssa, %23
  br i1 %49, label %50, label %52

50:                                               ; preds = %.critedge
  %51 = getelementptr inbounds i8, ptr %3, i64 8
  store double 0.000000e+00, ptr %51, align 8
  br label %52

52:                                               ; preds = %.critedge, %50, %18, %14, %6
  ret void
}